target datalayout = "e-m:e-p270:32:32-p271:32:32-p272:64:64-i64:64-i128:128-f80:128-n8:16:32:64-S128"
target triple = "x86_64-pc-linux-gnu"

%"class.ue2::mcclellan_build_strat" = type { %"class.ue2::accel_dfa_build_strat.base", ptr }
%"class.ue2::accel_dfa_build_strat.base" = type <{ %"class.ue2::dfa_build_strat", i8 }>
%"class.ue2::dfa_build_strat" = type { ptr, ptr }
%"class.ue2::bytecode_ptr" = type { %"class.std::unique_ptr.111", i64, i64 }
%"class.std::unique_ptr.111" = type { %"struct.std::__uniq_ptr_data.112" }
%"struct.std::__uniq_ptr_data.112" = type { %"class.std::__uniq_ptr_impl.113" }
%"class.std::__uniq_ptr_impl.113" = type { %"class.std::tuple.114" }
%"class.std::tuple.114" = type { %"struct.std::_Tuple_impl.115" }
%"struct.std::_Tuple_impl.115" = type { %"struct.std::_Head_base.118" }
%"struct.std::_Head_base.118" = type { ptr }
%"class.ue2::accel_dfa_build_strat" = type <{ %"class.ue2::dfa_build_strat", i8, [7 x i8] }>

@_ZTVN3ue221accel_dfa_build_stratE = external unnamed_addr constant { [14 x ptr] }, align 8
@_ZTVN3ue215dfa_build_stratE = external unnamed_addr constant { [6 x ptr] }, align 8

; Function Attrs: mustprogress nounwind uwtable
define linkonce_odr hidden void @_ZN3ue215dfa_build_stratC2ERKNS_13ReportManagerE(ptr noundef nonnull align 8 dereferenceable(16) %0, ptr noundef nonnull align 8 dereferenceable(505) %1) unnamed_addr #1 comdat align 2 {
  %3 = alloca ptr, align 8
  %4 = alloca ptr, align 8
  store ptr %0, ptr %3, align 8
  store ptr %1, ptr %4, align 8
  %5 = load ptr, ptr %3, align 8
  store ptr getelementptr inbounds inrange(-16, 32) ({ [6 x ptr] }, ptr @_ZTVN3ue215dfa_build_stratE, i32 0, i32 0, i32 2), ptr %5, align 8
  %6 = getelementptr inbounds nuw %"class.ue2::dfa_build_strat", ptr %5, i32 0, i32 1
  %7 = load ptr, ptr %4, align 8
  store ptr %7, ptr %6, align 8
  ret void
}

; Function Attrs: mustprogress uwtable
define linkonce_odr hidden void @_ZN3ue221accel_dfa_build_stratC2ERKNS_13ReportManagerEb(ptr noundef nonnull align 8 dereferenceable(17) %0, ptr noundef nonnull align 8 dereferenceable(505) %1, i1 noundef zeroext %2) unnamed_addr #3 comdat align 2 {
  %4 = alloca ptr, align 8
  %5 = alloca ptr, align 8
  %6 = alloca i8, align 1
  store ptr %0, ptr %4, align 8
  store ptr %1, ptr %5, align 8
  %7 = zext i1 %2 to i8
  store i8 %7, ptr %6, align 1
  %8 = load ptr, ptr %4, align 8
  %9 = load ptr, ptr %5, align 8
  call void @_ZN3ue215dfa_build_stratC2ERKNS_13ReportManagerE(ptr noundef nonnull align 8 dereferenceable(16) %8, ptr noundef nonnull align 8 dereferenceable(505) %9)
  store ptr getelementptr inbounds inrange(-16, 96) ({ [14 x ptr] }, ptr @_ZTVN3ue221accel_dfa_build_stratE, i32 0, i32 0, i32 2), ptr %8, align 8
  %10 = getelementptr inbounds nuw %"class.ue2::accel_dfa_build_strat", ptr %8, i32 0, i32 1
  %11 = load i8, ptr %6, align 1, !range !5, !noundef !6
  %12 = trunc i8 %11 to i1
  %13 = zext i1 %12 to i8
  store i8 %13, ptr %10, align 8
  ret void
}

; Function Attrs: mustprogress uwtable
define linkonce_odr hidden void @_ZN3ue221mcclellan_build_stratC2ERNS_7raw_dfaERKNS_13ReportManagerEb(ptr noundef nonnull align 8 dereferenceable(32) %0, ptr noundef nonnull align 8 dereferenceable(560) %1, ptr noundef nonnull align 8 dereferenceable(505) %2, i1 noundef zeroext %3) unnamed_addr #3 comdat align 2 {
  %5 = alloca ptr, align 8
  %6 = alloca ptr, align 8
  %7 = alloca ptr, align 8
  %8 = alloca i8, align 1
  store ptr %0, ptr %5, align 8
  store ptr %1, ptr %6, align 8
  store ptr %2, ptr %7, align 8
  %9 = zext i1 %3 to i8
  store i8 %9, ptr %8, align 1
  %10 = load ptr, ptr %5, align 8
  %11 = load ptr, ptr %7, align 8
  %12 = load i8, ptr %8, align 1, !range !5, !noundef !6
  %13 = trunc i8 %12 to i1
  call void @_ZN3ue221accel_dfa_build_stratC2ERKNS_13ReportManagerEb(ptr noundef nonnull align 8 dereferenceable(17) %10, ptr noundef nonnull align 8 dereferenceable(505) %11, i1 noundef zeroext %13)
  store ptr getelementptr inbounds inrange(-16, 96) ({ [14 x ptr] }, ptr @_ZTVN3ue221mcclellan_build_stratE, i32 0, i32 0, i32 2), ptr %10, align 8
  %14 = getelementptr inbounds nuw %"class.ue2::mcclellan_build_strat", ptr %10, i32 0, i32 1
  %15 = load ptr, ptr %6, align 8
  store ptr %15, ptr %14, align 8
  ret void
}

; Function Attrs: mustprogress uwtable
define hidden void @_ZN3ue216mcclellanCompileERNS_7raw_dfaERKNS_14CompileContextERKNS_13ReportManagerEbbPSt3setItSt4lessItESaItEE(ptr dead_on_unwind noalias writable sret(%"class.ue2::bytecode_ptr") align 8 %0, ptr noundef nonnull align 8 dereferenceable(560) %1, ptr noundef nonnull align 8 dereferenceable(320) %2, ptr noundef nonnull align 8 dereferenceable(505) %3, i1 noundef zeroext %4, i1 noundef zeroext %5, ptr noundef %6) #3 personality ptr @__gxx_personality_v0 {
  %8 = alloca ptr, align 8
  %9 = alloca ptr, align 8
  %10 = alloca ptr, align 8
  %11 = alloca ptr, align 8
  %12 = alloca i8, align 1
  %13 = alloca i8, align 1
  %14 = alloca ptr, align 8
  %15 = alloca %"class.ue2::mcclellan_build_strat", align 8
  %16 = alloca ptr, align 8
  %17 = alloca i32, align 4
  store ptr %0, ptr %8, align 8
  store ptr %1, ptr %9, align 8
  store ptr %2, ptr %10, align 8
  store ptr %3, ptr %11, align 8
  %18 = zext i1 %4 to i8
  store i8 %18, ptr %12, align 1
  %19 = zext i1 %5 to i8
  store i8 %19, ptr %13, align 1
  store ptr %6, ptr %14, align 8
  call void @llvm.lifetime.start.p0(i64 32, ptr %15) #20
  %20 = load ptr, ptr %9, align 8
  %21 = load ptr, ptr %11, align 8
  %22 = load i8, ptr %12, align 1, !range !5, !noundef !6
  %23 = trunc i8 %22 to i1
  call void @_ZN3ue221mcclellan_build_stratC2ERNS_7raw_dfaERKNS_13ReportManagerEb(ptr noundef nonnull align 8 dereferenceable(32) %15, ptr noundef nonnull align 8 dereferenceable(560) %20, ptr noundef nonnull align 8 dereferenceable(505) %21, i1 noundef zeroext %23)
  %24 = load ptr, ptr %9, align 8
  %25 = load ptr, ptr %10, align 8
  %26 = load i8, ptr %13, align 1, !range !5, !noundef !6
  %27 = trunc i8 %26 to i1
  %28 = load ptr, ptr %14, align 8
  invoke void @_ZN3ue218mcclellanCompile_iERNS_7raw_dfaERNS_21accel_dfa_build_stratERKNS_14CompileContextEbPSt3setItSt4lessItESaItEE(ptr dead_on_unwind writable sret(%"class.ue2::bytecode_ptr") align 8 %0, ptr noundef nonnull align 8 dereferenceable(560) %24, ptr noundef nonnull align 8 dereferenceable(17) %15, ptr noundef nonnull align 8 dereferenceable(320) %25, i1 noundef zeroext %27, ptr noundef %28)
          to label %29 unwind label %30

29:                                               ; preds = %7
  call void @_ZN3ue215dfa_build_stratD2Ev(ptr noundef nonnull align 8 dereferenceable(32) %15) #20
  call void @llvm.lifetime.end.p0(i64 32, ptr %15) #20
  ret void

30:                                               ; preds = %7
  %31 = landingpad { ptr, i32 }
          cleanup
  %32 = extractvalue { ptr, i32 } %31, 0
  store ptr %32, ptr %16, align 8
  %33 = extractvalue { ptr, i32 } %31, 1
  store i32 %33, ptr %17, align 4
  call void @_ZN3ue215dfa_build_stratD2Ev(ptr noundef nonnull align 8 dereferenceable(32) %15) #20
  call void @llvm.lifetime.end.p0(i64 32, ptr %15) #20
  br label %34

34:                                               ; preds = %30
  %35 = load ptr, ptr %16, align 8
  %36 = load i32, ptr %17, align 4
  %37 = insertvalue { ptr, i32 } poison, ptr %35, 0
  %38 = insertvalue { ptr, i32 } %37, i32 %36, 1
  resume { ptr, i32 } %38
}