; Function Attrs: mustprogress uwtable
define hidden void @_ZN3ue216mcclellanCompileERNS_7raw_dfaERKNS_14CompileContextERKNS_13ReportManagerEbbPSt3setItSt4lessItESaItEE(ptr dead_on_unwind noalias writable sret(%"class.ue2::bytecode_ptr") align 8 %0, ptr noundef nonnull align 8 dereferenceable(560) %1, ptr noundef nonnull align 8 dereferenceable(320) %2, ptr noundef nonnull align 8 dereferenceable(505) %3, i1 noundef zeroext %4, i1 noundef zeroext %5, ptr noundef %6) local_unnamed_addr #1 personality ptr @__gxx_personality_v0 {
  %8 = alloca %"class.ue2::mcclellan_build_strat", align 8
  call void @llvm.lifetime.start.p0(i64 32, ptr nonnull %8) #24
  %9 = zext i1 %4 to i8
  %10 = getelementptr inbounds nuw i8, ptr %8, i64 8
  store ptr %3, ptr %10, align 8
  %11 = getelementptr inbounds nuw i8, ptr %8, i64 16
  store i8 %9, ptr %11, align 8
  store ptr getelementptr inbounds nuw inrange(-16, 96) (i8, ptr @_ZTVN3ue221mcclellan_build_stratE, i64 16), ptr %8, align 8
  %12 = getelementptr inbounds nuw i8, ptr %8, i64 24
  store ptr %1, ptr %12, align 8
  invoke void @_ZN3ue218mcclellanCompile_iERNS_7raw_dfaERNS_21accel_dfa_build_stratERKNS_14CompileContextEbPSt3setItSt4lessItESaItEE(ptr dead_on_unwind writable sret(%"class.ue2::bytecode_ptr") align 8 %0, ptr noundef nonnull align 8 dereferenceable(560) %1, ptr noundef nonnull align 8 dereferenceable(17) %8, ptr noundef nonnull align 8 dereferenceable(320) %2, i1 noundef zeroext %5, ptr noundef %6)
          to label %13 unwind label %14

13:                                               ; preds = %7
  call void @_ZN3ue215dfa_build_stratD2Ev(ptr noundef nonnull align 8 dereferenceable(32) %8) #24
  call void @llvm.lifetime.end.p0(i64 32, ptr nonnull %8) #24
  ret void

14:                                               ; preds = %7
  %15 = landingpad { ptr, i32 }
          cleanup
  call void @_ZN3ue215dfa_build_stratD2Ev(ptr noundef nonnull align 8 dereferenceable(32) %8) #24
  call void @llvm.lifetime.end.p0(i64 32, ptr nonnull %8) #24
  resume { ptr, i32 } %15
}